; Function Attrs: nounwind uwtable
define dso_local i32 @config_set_in_gitmodules_file_gently(ptr noundef %0, ptr noundef %1) local_unnamed_addr #0 {
  %3 = load ptr, ptr @the_repository, align 8, !tbaa !54
  %4 = tail call i32 @repo_config_set_in_file_gently(ptr noundef %3, ptr noundef nonnull @.str.2, ptr noundef %0, ptr noundef null, ptr noundef %1) #15
  %5 = icmp slt i32 %4, 0
  br i1 %5, label %6, label %10

6:                                                ; preds = %2
  %7 = load i32, ptr @git_gettext_enabled, align 4, !tbaa !26
  %.not4.i = icmp eq i32 %7, 0
  br i1 %.not4.i, label %_.exit, label %8

8:                                                ; preds = %6
  %9 = tail call ptr @dcgettext(ptr noundef null, ptr noundef nonnull @.str.3, i32 noundef 5) #15
  br label %_.exit

_.exit:                                           ; preds = %6, %8
  %.0.i = phi ptr [ %9, %8 ], [ @.str.3, %6 ]
  tail call void (ptr, ...) @warning(ptr noundef %.0.i, ptr noundef %0) #15
  br label %10

10:                                               ; preds = %_.exit, %2
  ret i32 %4
}